; Function Attrs: nounwind uwtable
define internal fastcc noalias nonnull ptr @_init_l_Lean_Elab_Term_Op_elabBinOpLazy___regBuiltin_Lean_Elab_Term_Op_elabBinOpLazy_declRange__3___closed__2() unnamed_addr #0 {
  tail call void @lean_inc_heartbeat() #7
  %1 = tail call noalias ptr @mi_malloc_small(i64 noundef 24) #7
  %2 = icmp eq ptr %1, null
  br i1 %2, label %3, label %lean_alloc_ctor.exit

3:                                                ; preds = %0
  tail call void @lean_internal_panic_out_of_memory() #8
  unreachable

lean_alloc_ctor.exit:                             ; preds = %0
  %4 = getelementptr inbounds nuw i8, ptr %1, i64 4
  store i32 1, ptr %1, align 4, !tbaa !8
  store i32 131096, ptr %4, align 4
  %5 = getelementptr inbounds nuw i8, ptr %1, i64 8
  store ptr inttoptr (i64 953 to ptr), ptr %5, align 8, !tbaa !4
  %6 = getelementptr inbounds nuw i8, ptr %1, i64 16
  store ptr inttoptr (i64 141 to ptr), ptr %6, align 8, !tbaa !4
  ret ptr %1
}